; Function Attrs: nounwind uwtable
define ptr @l_Lean_RBNode_size___rarg(ptr noundef %0) local_unnamed_addr #1 {
  %2 = ptrtoint ptr %0 to i64
  %3 = and i64 %2, 1
  %.not.i24 = icmp eq i64 %3, 0
  br i1 %.not.i24, label %7, label %4

4:                                                ; preds = %1
  %5 = lshr i64 %2, 1
  %6 = trunc i64 %5 to i32
  br label %lean_obj_tag.exit

7:                                                ; preds = %1
  %8 = getelementptr i8, ptr %0, i64 4
  %.val.i = load i32, ptr %8, align 4
  %9 = lshr i32 %.val.i, 24
  br label %lean_obj_tag.exit

lean_obj_tag.exit:                                ; preds = %4, %7
  %.0.i25 = phi i32 [ %6, %4 ], [ %9, %7 ]
  %10 = icmp eq i32 %.0.i25, 0
  br i1 %10, label %lean_dec.exit, label %11

11:                                               ; preds = %lean_obj_tag.exit
  %12 = getelementptr inbounds nuw i8, ptr %0, i64 8
  %13 = load ptr, ptr %12, align 8, !tbaa !10
  %14 = getelementptr inbounds nuw i8, ptr %0, i64 32
  %15 = load ptr, ptr %14, align 8, !tbaa !10
  %16 = tail call ptr @l_Lean_RBNode_size___rarg(ptr noundef %13)
  %17 = tail call ptr @l_Lean_RBNode_size___rarg(ptr noundef %15)
  %18 = ptrtoint ptr %16 to i64
  %19 = and i64 %18, 1
  %.not = icmp eq i64 %19, 0
  %.pre36 = ptrtoint ptr %17 to i64
  %.pre = and i64 %.pre36, 1
  %20 = icmp eq i64 %.pre, 0
  br i1 %.not, label %lean_nat_add.exit17, label %21, !prof !15

21:                                               ; preds = %11
  br i1 %20, label %lean_nat_add.exit17.thread40, label %23, !prof !15

lean_nat_add.exit17.thread40:                     ; preds = %21
  %22 = tail call ptr @lean_nat_big_add(ptr noundef %16, ptr noundef %17) #9
  br label %35

23:                                               ; preds = %21
  %24 = lshr i64 %18, 1
  %25 = lshr i64 %.pre36, 1
  %26 = add nuw i64 %25, %24
  %27 = icmp sgt i64 %26, -1
  br i1 %27, label %28, label %32, !prof !9

28:                                               ; preds = %23
  %29 = shl nuw i64 %26, 1
  %30 = or disjoint i64 %29, 1
  %31 = inttoptr i64 %30 to ptr
  br label %lean_dec.exit18

32:                                               ; preds = %23
  %33 = tail call ptr @lean_big_usize_to_nat(i64 noundef range(i64 0, -1) %26) #9
  br label %lean_dec.exit18

lean_nat_add.exit17:                              ; preds = %11
  %34 = tail call ptr @lean_nat_big_add(ptr noundef %16, ptr noundef %17) #9
  br i1 %20, label %35, label %lean_dec.exit19.thread

35:                                               ; preds = %lean_nat_add.exit17.thread40, %lean_nat_add.exit17
  %36 = phi ptr [ %22, %lean_nat_add.exit17.thread40 ], [ %34, %lean_nat_add.exit17 ]
  %37 = load i32, ptr %17, align 4, !tbaa !4
  %38 = icmp sgt i32 %37, 1
  br i1 %38, label %39, label %41, !prof !9

39:                                               ; preds = %35
  %40 = add nsw i32 %37, -1
  store i32 %40, ptr %17, align 4, !tbaa !4
  br label %lean_dec.exit19

41:                                               ; preds = %35
  %.not.i = icmp eq i32 %37, 0
  br i1 %.not.i, label %lean_dec.exit19, label %42

42:                                               ; preds = %41
  tail call void @lean_dec_ref_cold(ptr noundef nonnull %17) #9
  br label %lean_dec.exit19

lean_dec.exit19:                                  ; preds = %42, %41, %39
  br i1 %.not, label %lean_dec.exit19.thread, label %lean_dec.exit18

lean_dec.exit19.thread:                           ; preds = %lean_nat_add.exit17, %lean_dec.exit19
  %.0.i163944 = phi ptr [ %36, %lean_dec.exit19 ], [ %34, %lean_nat_add.exit17 ]
  %43 = load i32, ptr %16, align 4, !tbaa !4
  %44 = icmp sgt i32 %43, 1
  br i1 %44, label %45, label %47, !prof !9

45:                                               ; preds = %lean_dec.exit19.thread
  %46 = add nsw i32 %43, -1
  store i32 %46, ptr %16, align 4, !tbaa !4
  br label %lean_dec.exit18

47:                                               ; preds = %lean_dec.exit19.thread
  %.not.i20 = icmp eq i32 %43, 0
  br i1 %.not.i20, label %lean_dec.exit18, label %48

48:                                               ; preds = %47
  tail call void @lean_dec_ref_cold(ptr noundef nonnull %16) #9
  br label %lean_dec.exit18

lean_dec.exit18:                                  ; preds = %32, %28, %48, %47, %45, %lean_dec.exit19
  %.0.i163943 = phi ptr [ %.0.i163944, %48 ], [ %.0.i163944, %47 ], [ %.0.i163944, %45 ], [ %36, %lean_dec.exit19 ], [ %31, %28 ], [ %33, %32 ]
  %49 = ptrtoint ptr %.0.i163943 to i64
  %50 = and i64 %49, 1
  %.not33 = icmp eq i64 %50, 0
  br i1 %.not33, label %61, label %51, !prof !15

51:                                               ; preds = %lean_dec.exit18
  %52 = lshr i64 %49, 1
  %53 = add nuw i64 %52, 1
  %54 = icmp sgt i64 %53, -1
  br i1 %54, label %55, label %59, !prof !9

55:                                               ; preds = %51
  %56 = shl nuw i64 %53, 1
  %57 = or disjoint i64 %56, 1
  %58 = inttoptr i64 %57 to ptr
  br label %lean_dec.exit

59:                                               ; preds = %51
  %60 = tail call ptr @lean_big_usize_to_nat(i64 noundef range(i64 0, -1) %53) #9
  br label %lean_dec.exit

61:                                               ; preds = %lean_dec.exit18
  %62 = tail call ptr @lean_nat_big_add(ptr noundef %.0.i163943, ptr noundef nonnull inttoptr (i64 3 to ptr)) #9
  %63 = load i32, ptr %.0.i163943, align 4, !tbaa !4
  %64 = icmp sgt i32 %63, 1
  br i1 %64, label %65, label %67, !prof !9

65:                                               ; preds = %61
  %66 = add nsw i32 %63, -1
  store i32 %66, ptr %.0.i163943, align 4, !tbaa !4
  br label %lean_dec.exit

67:                                               ; preds = %61
  %.not.i22 = icmp eq i32 %63, 0
  br i1 %.not.i22, label %lean_dec.exit, label %68

68:                                               ; preds = %67
  tail call void @lean_dec_ref_cold(ptr noundef nonnull %.0.i163943) #9
  br label %lean_dec.exit

lean_dec.exit:                                    ; preds = %55, %59, %65, %67, %68, %lean_obj_tag.exit
  %.0 = phi ptr [ inttoptr (i64 1 to ptr), %lean_obj_tag.exit ], [ %62, %65 ], [ %62, %67 ], [ %62, %68 ], [ %60, %59 ], [ %58, %55 ]
  ret ptr %.0
}